; Function Attrs: mustprogress uwtable
define hidden noundef nonnull align 8 dereferenceable(116) ptr @_ZN4cvc58internal11NodeBuilder6appendENS0_12NodeTemplateILb0EEE(ptr noundef nonnull returned align 8 dereferenceable(116) %this, ptr nocapture noundef readonly %n) local_unnamed_addr #3 align 2 personality ptr @__gxx_personality_v0 {
entry:
  %ref.tmp = alloca i32, align 4
  %0 = load ptr, ptr %n, align 8
  %d_kind.i = getelementptr inbounds i8, ptr %0, i64 8
  %bf.load.i = load i16, ptr %d_kind.i, align 8
  %bf.clear.i = and i16 %bf.load.i, 1023
  %cmp = icmp eq i16 %bf.clear.i, 4
  br i1 %cmp, label %if.then, label %if.end

if.then:                                          ; preds = %entry
  %call.i2 = tail call noundef i32 @_ZN4cvc58internal4kind14operatorToKindEPNS0_4expr9NodeValueE(ptr noundef nonnull %0)
  store i32 %call.i2, ptr %ref.tmp, align 4
  %call4 = call noundef nonnull align 8 dereferenceable(116) ptr @_ZN4cvc58internal11NodeBuilderlsERKNS0_4kind6Kind_tE(ptr noundef nonnull align 8 dereferenceable(116) %this, ptr noundef nonnull align 4 dereferenceable(4) %ref.tmp)
  br label %return

if.end:                                           ; preds = %entry
  %d_nv.i.i = getelementptr inbounds i8, ptr %this, i64 96
  %1 = load ptr, ptr %d_nv.i.i, align 8
  %d_nchildren.i.i = getelementptr inbounds i8, ptr %1, i64 12
  %bf.load.i.i = load i32, ptr %d_nchildren.i.i, align 4
  %bf.clear.i.i = and i32 %bf.load.i.i, 67108863
  %d_nvMaxChildren.i.i = getelementptr inbounds i8, ptr %this, i64 112
  %2 = load i32, ptr %d_nvMaxChildren.i.i, align 8
  %cmp.i.i = icmp eq i32 %bf.clear.i.i, %2
  br i1 %cmp.i.i, label %if.then.i, label %_ZN4cvc58internal11NodeBuilder30allocateNvIfNecessaryForAppendEv.exit

if.then.i:                                        ; preds = %if.end
  %3 = shl nuw nsw i32 %bf.clear.i.i, 1
  %4 = tail call i32 @llvm.umin.i32(i32 %3, i32 67108863)
  %cond.i.i = zext nneg i32 %4 to i64
  tail call void @_ZN4cvc58internal11NodeBuilder7reallocEm(ptr noundef nonnull align 8 dereferenceable(116) %this, i64 noundef %cond.i.i)
  %.pre = load ptr, ptr %n, align 8
  br label %_ZN4cvc58internal11NodeBuilder30allocateNvIfNecessaryForAppendEv.exit

_ZN4cvc58internal11NodeBuilder30allocateNvIfNecessaryForAppendEv.exit: ; preds = %if.end, %if.then.i
  %5 = phi ptr [ %0, %if.end ], [ %.pre, %if.then.i ]
  %bf.load.i3 = load i64, ptr %5, align 8
  %bf.lshr.i = lshr i64 %bf.load.i3, 40
  %6 = trunc i64 %bf.lshr.i to i32
  %bf.cast.i4 = and i32 %6, 1048575
  %cmp.i = icmp ult i32 %bf.cast.i4, 1048574
  br i1 %cmp.i, label %if.then.i5, label %if.else.i

if.then.i5:                                       ; preds = %_ZN4cvc58internal11NodeBuilder30allocateNvIfNecessaryForAppendEv.exit
  %bf.value.i = add i64 %bf.load.i3, 1099511627776
  %bf.shl.i = and i64 %bf.value.i, 1152920405095219200
  %bf.clear7.i = and i64 %bf.load.i3, -1152920405095219201
  %bf.set.i = or disjoint i64 %bf.shl.i, %bf.clear7.i
  store i64 %bf.set.i, ptr %5, align 8
  br label %_ZN4cvc58internal4expr9NodeValue3incEv.exit

if.else.i:                                        ; preds = %_ZN4cvc58internal11NodeBuilder30allocateNvIfNecessaryForAppendEv.exit
  %cmp12.i = icmp eq i32 %bf.cast.i4, 1048574
  br i1 %cmp12.i, label %if.then13.i, label %_ZN4cvc58internal4expr9NodeValue3incEv.exit

if.then13.i:                                      ; preds = %if.else.i
  %bf.set23.i = or i64 %bf.load.i3, 1152920405095219200
  store i64 %bf.set23.i, ptr %5, align 8
  tail call void @_ZN4cvc58internal4expr9NodeValue20markRefCountMaxedOutEv(ptr noundef nonnull align 8 dereferenceable(16) %5)
  br label %_ZN4cvc58internal4expr9NodeValue3incEv.exit

_ZN4cvc58internal4expr9NodeValue3incEv.exit:      ; preds = %if.then.i5, %if.else.i, %if.then13.i
  %7 = load ptr, ptr %d_nv.i.i, align 8
  %d_children = getelementptr inbounds i8, ptr %7, i64 16
  %d_nchildren = getelementptr inbounds i8, ptr %7, i64 12
  %bf.load = load i32, ptr %d_nchildren, align 4
  %bf.clear = and i32 %bf.load, 67108863
  %inc = add i32 %bf.load, 1
  %bf.value = and i32 %inc, 67108863
  %bf.clear8 = and i32 %bf.load, -67108864
  %bf.set = or disjoint i32 %bf.value, %bf.clear8
  store i32 %bf.set, ptr %d_nchildren, align 4
  %idxprom = zext nneg i32 %bf.clear to i64
  %arrayidx = getelementptr inbounds [0 x ptr], ptr %d_children, i64 0, i64 %idxprom
  store ptr %5, ptr %arrayidx, align 8
  br label %return

return:                                           ; preds = %if.then, %_ZN4cvc58internal4expr9NodeValue3incEv.exit
  ret ptr %this
}